
dma_test.ko:     file format elf32-littlearm


Disassembly of section .text:

00000000 <dma_callback_func>:
   0:	e1a0c00d 	mov	ip, sp
   4:	e92dd800 	push	{fp, ip, lr, pc}
   8:	e24cb004 	sub	fp, ip, #4
   c:	e24dd008 	sub	sp, sp, #8
  10:	e52de004 	push	{lr}		; (str lr, [sp, #-4]!)
  14:	ebfffffe 	bl	0 <__gnu_mcount_nc>
  18:	e3a03000 	mov	r3, #0
  1c:	e50b3010 	str	r3, [fp, #-16]
  20:	ea00000c 	b	58 <dma_callback_func+0x58>
  24:	e3003000 	movw	r3, #0
  28:	e3403000 	movt	r3, #0
  2c:	e5932000 	ldr	r2, [r3]
  30:	e51b3010 	ldr	r3, [fp, #-16]
  34:	e0823003 	add	r3, r2, r3
  38:	e5d33000 	ldrb	r3, [r3]
  3c:	e1a01003 	mov	r1, r3
  40:	e3000000 	movw	r0, #0
  44:	e3400000 	movt	r0, #0
  48:	ebfffffe 	bl	0 <printk>
  4c:	e51b3010 	ldr	r3, [fp, #-16]
  50:	e2833001 	add	r3, r3, #1
  54:	e50b3010 	str	r3, [fp, #-16]
  58:	e51b3010 	ldr	r3, [fp, #-16]
  5c:	e3530c02 	cmp	r3, #512	; 0x200
  60:	baffffef 	blt	24 <dma_callback_func+0x24>
  64:	e24bd00c 	sub	sp, fp, #12
  68:	e89da800 	ldm	sp, {fp, sp, pc}

0000006c <dmatest_open>:
  6c:	e1a0c00d 	mov	ip, sp
  70:	e92dd800 	push	{fp, ip, lr, pc}
  74:	e24cb004 	sub	fp, ip, #4
  78:	e24dd008 	sub	sp, sp, #8
  7c:	e52de004 	push	{lr}		; (str lr, [sp, #-4]!)
  80:	ebfffffe 	bl	0 <__gnu_mcount_nc>
  84:	e50b0010 	str	r0, [fp, #-16]
  88:	e50b1014 	str	r1, [fp, #-20]
  8c:	e3a03000 	mov	r3, #0
  90:	e1a00003 	mov	r0, r3
  94:	e24bd00c 	sub	sp, fp, #12
  98:	e89da800 	ldm	sp, {fp, sp, pc}

0000009c <dmatest_release>:
  9c:	e1a0c00d 	mov	ip, sp
  a0:	e92dd800 	push	{fp, ip, lr, pc}
  a4:	e24cb004 	sub	fp, ip, #4
  a8:	e24dd008 	sub	sp, sp, #8
  ac:	e52de004 	push	{lr}		; (str lr, [sp, #-4]!)
  b0:	ebfffffe 	bl	0 <__gnu_mcount_nc>
  b4:	e50b0010 	str	r0, [fp, #-16]
  b8:	e50b1014 	str	r1, [fp, #-20]
  bc:	e3a03000 	mov	r3, #0
  c0:	e1a00003 	mov	r0, r3
  c4:	e24bd00c 	sub	sp, fp, #12
  c8:	e89da800 	ldm	sp, {fp, sp, pc}

000000cc <dmatest_read>:
  cc:	e1a0c00d 	mov	ip, sp
  d0:	e92dd810 	push	{r4, fp, ip, lr, pc}
  d4:	e24cb004 	sub	fp, ip, #4
  d8:	e24dd02c 	sub	sp, sp, #44	; 0x2c
  dc:	e52de004 	push	{lr}		; (str lr, [sp, #-4]!)
  e0:	ebfffffe 	bl	0 <__gnu_mcount_nc>
  e4:	e50b0028 	str	r0, [fp, #-40]	; 0x28
  e8:	e50b102c 	str	r1, [fp, #-44]	; 0x2c
  ec:	e50b2030 	str	r2, [fp, #-48]	; 0x30
  f0:	e50b3034 	str	r3, [fp, #-52]	; 0x34
  f4:	e3a03000 	mov	r3, #0
  f8:	e50b3018 	str	r3, [fp, #-24]
  fc:	e3003000 	movw	r3, #0
 100:	e3403000 	movt	r3, #0
 104:	e5933000 	ldr	r3, [r3]
 108:	e5934064 	ldr	r4, [r3, #100]	; 0x64
 10c:	e3003000 	movw	r3, #0
 110:	e3403000 	movt	r3, #0
 114:	e5930000 	ldr	r0, [r3]
 118:	e3003000 	movw	r3, #0
 11c:	e3403000 	movt	r3, #0
 120:	e5931000 	ldr	r1, [r3]
 124:	e3003000 	movw	r3, #0
 128:	e3403000 	movt	r3, #0
 12c:	e5932000 	ldr	r2, [r3]
 130:	e3003000 	movw	r3, #0
 134:	e3403000 	movt	r3, #0
 138:	e5933000 	ldr	r3, [r3]
 13c:	e58d3000 	str	r3, [sp]
 140:	e3a03c02 	mov	r3, #512	; 0x200
 144:	e12fff34 	blx	r4
 148:	e1a02000 	mov	r2, r0
 14c:	e3003000 	movw	r3, #0
 150:	e3403000 	movt	r3, #0
 154:	e5832000 	str	r2, [r3]
 158:	e3003000 	movw	r3, #0
 15c:	e3403000 	movt	r3, #0
 160:	e5933000 	ldr	r3, [r3]
 164:	e3530000 	cmp	r3, #0
 168:	1a000002 	bne	178 <dmatest_read+0xac>
 16c:	e3000000 	movw	r0, #0
 170:	e3400000 	movt	r0, #0
 174:	ebfffffe 	bl	0 <printk>
 178:	e3003000 	movw	r3, #0
 17c:	e3403000 	movt	r3, #0
 180:	e5932000 	ldr	r2, [r3]
 184:	e3003000 	movw	r3, #0
 188:	e3403000 	movt	r3, #0
 18c:	e5823018 	str	r3, [r2, #24]
 190:	e3003000 	movw	r3, #0
 194:	e3403000 	movt	r3, #0
 198:	e5933000 	ldr	r3, [r3]
 19c:	e3a02000 	mov	r2, #0
 1a0:	e5832020 	str	r2, [r3, #32]
 1a4:	e3003000 	movw	r3, #0
 1a8:	e3403000 	movt	r3, #0
 1ac:	e5933000 	ldr	r3, [r3]
 1b0:	e5932010 	ldr	r2, [r3, #16]
 1b4:	e3003000 	movw	r3, #0
 1b8:	e3403000 	movt	r3, #0
 1bc:	e5933000 	ldr	r3, [r3]
 1c0:	e1a00003 	mov	r0, r3
 1c4:	e12fff32 	blx	r2
 1c8:	e1a02000 	mov	r2, r0
 1cc:	e3003000 	movw	r3, #0
 1d0:	e3403000 	movt	r3, #0
 1d4:	e5832000 	str	r2, [r3]
 1d8:	e3003000 	movw	r3, #0
 1dc:	e3403000 	movt	r3, #0
 1e0:	e5933000 	ldr	r3, [r3]
 1e4:	e50b301c 	str	r3, [fp, #-28]
 1e8:	e51b301c 	ldr	r3, [fp, #-28]
 1ec:	e0033fc3 	and	r3, r3, r3, asr #31
 1f0:	e3530000 	cmp	r3, #0
 1f4:	0a000002 	beq	204 <dmatest_read+0x138>
 1f8:	e3000000 	movw	r0, #0
 1fc:	e3400000 	movt	r0, #0
 200:	ebfffffe 	bl	0 <printk>
 204:	e3003000 	movw	r3, #0
 208:	e3403000 	movt	r3, #0
 20c:	e5933000 	ldr	r3, [r3]
 210:	e50b3020 	str	r3, [fp, #-32]
 214:	e51b3020 	ldr	r3, [fp, #-32]
 218:	e5933000 	ldr	r3, [r3]
 21c:	e59330b0 	ldr	r3, [r3, #176]	; 0xb0
 220:	e51b0020 	ldr	r0, [fp, #-32]
 224:	e12fff33 	blx	r3
 228:	e51b3018 	ldr	r3, [fp, #-24]
 22c:	e1a00003 	mov	r0, r3
 230:	e24bd010 	sub	sp, fp, #16
 234:	e89da810 	ldm	sp, {r4, fp, sp, pc}

00000238 <dmatest_write>:
 238:	e1a0c00d 	mov	ip, sp
 23c:	e92dd800 	push	{fp, ip, lr, pc}
 240:	e24cb004 	sub	fp, ip, #4
 244:	e24dd018 	sub	sp, sp, #24
 248:	e52de004 	push	{lr}		; (str lr, [sp, #-4]!)
 24c:	ebfffffe 	bl	0 <__gnu_mcount_nc>
 250:	e50b0018 	str	r0, [fp, #-24]
 254:	e50b101c 	str	r1, [fp, #-28]
 258:	e50b2020 	str	r2, [fp, #-32]
 25c:	e50b3024 	str	r3, [fp, #-36]	; 0x24
 260:	e3a03000 	mov	r3, #0
 264:	e50b3010 	str	r3, [fp, #-16]
 268:	e51b3010 	ldr	r3, [fp, #-16]
 26c:	e1a00003 	mov	r0, r3
 270:	e24bd00c 	sub	sp, fp, #12
 274:	e89da800 	ldm	sp, {fp, sp, pc}

00000278 <dmatest_init>:
 278:	e1a0c00d 	mov	ip, sp
 27c:	e92dd810 	push	{r4, fp, ip, lr, pc}
 280:	e24cb004 	sub	fp, ip, #4
 284:	e24dd0cc 	sub	sp, sp, #204	; 0xcc
 288:	e52de004 	push	{lr}		; (str lr, [sp, #-4]!)
 28c:	ebfffffe 	bl	0 <__gnu_mcount_nc>
 290:	e3a03000 	mov	r3, #0
 294:	e50b301c 	str	r3, [fp, #-28]
 298:	e3003000 	movw	r3, #0
 29c:	e3403000 	movt	r3, #0
 2a0:	e50b3020 	str	r3, [fp, #-32]
 2a4:	e3003000 	movw	r3, #0
 2a8:	e3403000 	movt	r3, #0
 2ac:	e50b3024 	str	r3, [fp, #-36]	; 0x24
 2b0:	e51b3024 	ldr	r3, [fp, #-36]	; 0x24
 2b4:	e58d3000 	str	r3, [sp]
 2b8:	e51b3020 	ldr	r3, [fp, #-32]
 2bc:	e3a02c01 	mov	r2, #256	; 0x100
 2c0:	e3a01000 	mov	r1, #0
 2c4:	e51b001c 	ldr	r0, [fp, #-28]
 2c8:	ebfffffe 	bl	0 <__register_chrdev>
 2cc:	e1a03000 	mov	r3, r0
 2d0:	e6ef2073 	uxtb	r2, r3
 2d4:	e3003000 	movw	r3, #0
 2d8:	e3403000 	movt	r3, #0
 2dc:	e5c32000 	strb	r2, [r3]
 2e0:	e3002000 	movw	r2, #0
 2e4:	e3402000 	movt	r2, #0
 2e8:	e3001000 	movw	r1, #0
 2ec:	e3401000 	movt	r1, #0
 2f0:	e3000000 	movw	r0, #0
 2f4:	e3400000 	movt	r0, #0
 2f8:	ebfffffe 	bl	0 <__class_create>
 2fc:	e1a02000 	mov	r2, r0
 300:	e3003000 	movw	r3, #0
 304:	e3403000 	movt	r3, #0
 308:	e5832000 	str	r2, [r3]
 30c:	e3003000 	movw	r3, #0
 310:	e3403000 	movt	r3, #0
 314:	e5933000 	ldr	r3, [r3]
 318:	e50b3028 	str	r3, [fp, #-40]	; 0x28
 31c:	e51b3028 	ldr	r3, [fp, #-40]	; 0x28
 320:	e3730a01 	cmn	r3, #4096	; 0x1000
 324:	83a03001 	movhi	r3, #1
 328:	93a03000 	movls	r3, #0
 32c:	e6ef3073 	uxtb	r3, r3
 330:	e3530000 	cmp	r3, #0
 334:	13a03001 	movne	r3, #1
 338:	03a03000 	moveq	r3, #0
 33c:	e6ef3073 	uxtb	r3, r3
 340:	e3530000 	cmp	r3, #0
 344:	0a000001 	beq	350 <dmatest_init+0xd8>
 348:	e3e03000 	mvn	r3, #0
 34c:	ea000116 	b	7ac <dmatest_init+0x534>
 350:	e3003000 	movw	r3, #0
 354:	e3403000 	movt	r3, #0
 358:	e5930000 	ldr	r0, [r3]
 35c:	e3003000 	movw	r3, #0
 360:	e3403000 	movt	r3, #0
 364:	e5d33000 	ldrb	r3, [r3]
 368:	e1a03a03 	lsl	r3, r3, #20
 36c:	e1a02003 	mov	r2, r3
 370:	e3003000 	movw	r3, #0
 374:	e3403000 	movt	r3, #0
 378:	e58d3000 	str	r3, [sp]
 37c:	e3a03000 	mov	r3, #0
 380:	e3a01000 	mov	r1, #0
 384:	ebfffffe 	bl	0 <device_create>
 388:	e3a03000 	mov	r3, #0
 38c:	e50b302c 	str	r3, [fp, #-44]	; 0x2c
 390:	e3a03c02 	mov	r3, #512	; 0x200
 394:	e50b3030 	str	r3, [fp, #-48]	; 0x30
 398:	e3003000 	movw	r3, #0
 39c:	e3403000 	movt	r3, #0
 3a0:	e50b3034 	str	r3, [fp, #-52]	; 0x34
 3a4:	e3a030c0 	mov	r3, #192	; 0xc0
 3a8:	e3403140 	movt	r3, #320	; 0x140
 3ac:	e50b3038 	str	r3, [fp, #-56]	; 0x38
 3b0:	e51b302c 	ldr	r3, [fp, #-44]	; 0x2c
 3b4:	e50b303c 	str	r3, [fp, #-60]	; 0x3c
 3b8:	e51b3030 	ldr	r3, [fp, #-48]	; 0x30
 3bc:	e50b3040 	str	r3, [fp, #-64]	; 0x40
 3c0:	e51b3034 	ldr	r3, [fp, #-52]	; 0x34
 3c4:	e50b3044 	str	r3, [fp, #-68]	; 0x44
 3c8:	e51b3038 	ldr	r3, [fp, #-56]	; 0x38
 3cc:	e50b3048 	str	r3, [fp, #-72]	; 0x48
 3d0:	e3a03000 	mov	r3, #0
 3d4:	e50b304c 	str	r3, [fp, #-76]	; 0x4c
 3d8:	e51b303c 	ldr	r3, [fp, #-60]	; 0x3c
 3dc:	e50b3050 	str	r3, [fp, #-80]	; 0x50
 3e0:	e51b3050 	ldr	r3, [fp, #-80]	; 0x50
 3e4:	e50b3054 	str	r3, [fp, #-84]	; 0x54
 3e8:	e51b3054 	ldr	r3, [fp, #-84]	; 0x54
 3ec:	e3530000 	cmp	r3, #0
 3f0:	0a000006 	beq	410 <dmatest_init+0x198>
 3f4:	e51b3054 	ldr	r3, [fp, #-84]	; 0x54
 3f8:	e5933134 	ldr	r3, [r3, #308]	; 0x134
 3fc:	e3530000 	cmp	r3, #0
 400:	0a000002 	beq	410 <dmatest_init+0x198>
 404:	e51b3054 	ldr	r3, [fp, #-84]	; 0x54
 408:	e5933134 	ldr	r3, [r3, #308]	; 0x134
 40c:	ea000001 	b	418 <dmatest_init+0x1a0>
 410:	e3003000 	movw	r3, #0
 414:	e3403000 	movt	r3, #0
 418:	e50b3058 	str	r3, [fp, #-88]	; 0x58
 41c:	e51b3058 	ldr	r3, [fp, #-88]	; 0x58
 420:	e3530000 	cmp	r3, #0
 424:	03a03001 	moveq	r3, #1
 428:	13a03000 	movne	r3, #0
 42c:	e6ef3073 	uxtb	r3, r3
 430:	e3530000 	cmp	r3, #0
 434:	0a000000 	beq	43c <dmatest_init+0x1c4>
 438:	e7f001f2 	undefined instruction 0xe7f001f2
 43c:	e51b1040 	ldr	r1, [fp, #-64]	; 0x40
 440:	e24b30d4 	sub	r3, fp, #212	; 0xd4
 444:	e51b2044 	ldr	r2, [fp, #-68]	; 0x44
 448:	e51b003c 	ldr	r0, [fp, #-60]	; 0x3c
 44c:	ebfffffe 	bl	0 <dma_alloc_from_coherent>
 450:	e1a03000 	mov	r3, r0
 454:	e3530000 	cmp	r3, #0
 458:	0a000001 	beq	464 <dmatest_init+0x1ec>
 45c:	e51b20d4 	ldr	r2, [fp, #-212]	; 0xd4
 460:	ea00001a 	b	4d0 <dmatest_init+0x258>
 464:	e51b3058 	ldr	r3, [fp, #-88]	; 0x58
 468:	e5933000 	ldr	r3, [r3]
 46c:	e3530000 	cmp	r3, #0
 470:	1a000001 	bne	47c <dmatest_init+0x204>
 474:	e3a02000 	mov	r2, #0
 478:	ea000014 	b	4d0 <dmatest_init+0x258>
 47c:	e51b3058 	ldr	r3, [fp, #-88]	; 0x58
 480:	e5934000 	ldr	r4, [r3]
 484:	e51b304c 	ldr	r3, [fp, #-76]	; 0x4c
 488:	e58d3000 	str	r3, [sp]
 48c:	e51b3048 	ldr	r3, [fp, #-72]	; 0x48
 490:	e51b2044 	ldr	r2, [fp, #-68]	; 0x44
 494:	e51b1040 	ldr	r1, [fp, #-64]	; 0x40
 498:	e51b003c 	ldr	r0, [fp, #-60]	; 0x3c
 49c:	e12fff34 	blx	r4
 4a0:	e1a03000 	mov	r3, r0
 4a4:	e50b30d4 	str	r3, [fp, #-212]	; 0xd4
 4a8:	e51b3044 	ldr	r3, [fp, #-68]	; 0x44
 4ac:	e5932000 	ldr	r2, [r3]
 4b0:	e51b30d4 	ldr	r3, [fp, #-212]	; 0xd4
 4b4:	e51b103c 	ldr	r1, [fp, #-60]	; 0x3c
 4b8:	e50b105c 	str	r1, [fp, #-92]	; 0x5c
 4bc:	e51b1040 	ldr	r1, [fp, #-64]	; 0x40
 4c0:	e50b1060 	str	r1, [fp, #-96]	; 0x60
 4c4:	e50b2064 	str	r2, [fp, #-100]	; 0x64
 4c8:	e50b3068 	str	r3, [fp, #-104]	; 0x68
 4cc:	e51b20d4 	ldr	r2, [fp, #-212]	; 0xd4
 4d0:	e3003000 	movw	r3, #0
 4d4:	e3403000 	movt	r3, #0
 4d8:	e5832000 	str	r2, [r3]
 4dc:	e3003000 	movw	r3, #0
 4e0:	e3403000 	movt	r3, #0
 4e4:	e5931000 	ldr	r1, [r3]
 4e8:	e3003000 	movw	r3, #0
 4ec:	e3403000 	movt	r3, #0
 4f0:	e5933000 	ldr	r3, [r3]
 4f4:	e1a02003 	mov	r2, r3
 4f8:	e3000000 	movw	r0, #0
 4fc:	e3400000 	movt	r0, #0
 500:	ebfffffe 	bl	0 <printk>
 504:	e3a03000 	mov	r3, #0
 508:	e50b306c 	str	r3, [fp, #-108]	; 0x6c
 50c:	e3a03c02 	mov	r3, #512	; 0x200
 510:	e50b3070 	str	r3, [fp, #-112]	; 0x70
 514:	e3003000 	movw	r3, #0
 518:	e3403000 	movt	r3, #0
 51c:	e50b3074 	str	r3, [fp, #-116]	; 0x74
 520:	e3a030c0 	mov	r3, #192	; 0xc0
 524:	e3403140 	movt	r3, #320	; 0x140
 528:	e50b3078 	str	r3, [fp, #-120]	; 0x78
 52c:	e51b306c 	ldr	r3, [fp, #-108]	; 0x6c
 530:	e50b307c 	str	r3, [fp, #-124]	; 0x7c
 534:	e51b3070 	ldr	r3, [fp, #-112]	; 0x70
 538:	e50b3080 	str	r3, [fp, #-128]	; 0x80
 53c:	e51b3074 	ldr	r3, [fp, #-116]	; 0x74
 540:	e50b3084 	str	r3, [fp, #-132]	; 0x84
 544:	e51b3078 	ldr	r3, [fp, #-120]	; 0x78
 548:	e50b3088 	str	r3, [fp, #-136]	; 0x88
 54c:	e3a03000 	mov	r3, #0
 550:	e50b308c 	str	r3, [fp, #-140]	; 0x8c
 554:	e51b307c 	ldr	r3, [fp, #-124]	; 0x7c
 558:	e50b3090 	str	r3, [fp, #-144]	; 0x90
 55c:	e51b3090 	ldr	r3, [fp, #-144]	; 0x90
 560:	e50b3094 	str	r3, [fp, #-148]	; 0x94
 564:	e51b3094 	ldr	r3, [fp, #-148]	; 0x94
 568:	e3530000 	cmp	r3, #0
 56c:	0a000006 	beq	58c <dmatest_init+0x314>
 570:	e51b3094 	ldr	r3, [fp, #-148]	; 0x94
 574:	e5933134 	ldr	r3, [r3, #308]	; 0x134
 578:	e3530000 	cmp	r3, #0
 57c:	0a000002 	beq	58c <dmatest_init+0x314>
 580:	e51b3094 	ldr	r3, [fp, #-148]	; 0x94
 584:	e5933134 	ldr	r3, [r3, #308]	; 0x134
 588:	ea000001 	b	594 <dmatest_init+0x31c>
 58c:	e3003000 	movw	r3, #0
 590:	e3403000 	movt	r3, #0
 594:	e50b3098 	str	r3, [fp, #-152]	; 0x98
 598:	e51b3098 	ldr	r3, [fp, #-152]	; 0x98
 59c:	e3530000 	cmp	r3, #0
 5a0:	03a03001 	moveq	r3, #1
 5a4:	13a03000 	movne	r3, #0
 5a8:	e6ef3073 	uxtb	r3, r3
 5ac:	e3530000 	cmp	r3, #0
 5b0:	0a000000 	beq	5b8 <dmatest_init+0x340>
 5b4:	e7f001f2 	undefined instruction 0xe7f001f2
 5b8:	e51b1080 	ldr	r1, [fp, #-128]	; 0x80
 5bc:	e24b30d0 	sub	r3, fp, #208	; 0xd0
 5c0:	e51b2084 	ldr	r2, [fp, #-132]	; 0x84
 5c4:	e51b007c 	ldr	r0, [fp, #-124]	; 0x7c
 5c8:	ebfffffe 	bl	0 <dma_alloc_from_coherent>
 5cc:	e1a03000 	mov	r3, r0
 5d0:	e3530000 	cmp	r3, #0
 5d4:	0a000001 	beq	5e0 <dmatest_init+0x368>
 5d8:	e51b20d0 	ldr	r2, [fp, #-208]	; 0xd0
 5dc:	ea00001a 	b	64c <dmatest_init+0x3d4>
 5e0:	e51b3098 	ldr	r3, [fp, #-152]	; 0x98
 5e4:	e5933000 	ldr	r3, [r3]
 5e8:	e3530000 	cmp	r3, #0
 5ec:	1a000001 	bne	5f8 <dmatest_init+0x380>
 5f0:	e3a02000 	mov	r2, #0
 5f4:	ea000014 	b	64c <dmatest_init+0x3d4>
 5f8:	e51b3098 	ldr	r3, [fp, #-152]	; 0x98
 5fc:	e5934000 	ldr	r4, [r3]
 600:	e51b308c 	ldr	r3, [fp, #-140]	; 0x8c
 604:	e58d3000 	str	r3, [sp]
 608:	e51b3088 	ldr	r3, [fp, #-136]	; 0x88
 60c:	e51b2084 	ldr	r2, [fp, #-132]	; 0x84
 610:	e51b1080 	ldr	r1, [fp, #-128]	; 0x80
 614:	e51b007c 	ldr	r0, [fp, #-124]	; 0x7c
 618:	e12fff34 	blx	r4
 61c:	e1a03000 	mov	r3, r0
 620:	e50b30d0 	str	r3, [fp, #-208]	; 0xd0
 624:	e51b3084 	ldr	r3, [fp, #-132]	; 0x84
 628:	e5932000 	ldr	r2, [r3]
 62c:	e51b30d0 	ldr	r3, [fp, #-208]	; 0xd0
 630:	e51b107c 	ldr	r1, [fp, #-124]	; 0x7c
 634:	e50b109c 	str	r1, [fp, #-156]	; 0x9c
 638:	e51b1080 	ldr	r1, [fp, #-128]	; 0x80
 63c:	e50b10a0 	str	r1, [fp, #-160]	; 0xa0
 640:	e50b20a4 	str	r2, [fp, #-164]	; 0xa4
 644:	e50b30a8 	str	r3, [fp, #-168]	; 0xa8
 648:	e51b20d0 	ldr	r2, [fp, #-208]	; 0xd0
 64c:	e3003000 	movw	r3, #0
 650:	e3403000 	movt	r3, #0
 654:	e5832000 	str	r2, [r3]
 658:	e3003000 	movw	r3, #0
 65c:	e3403000 	movt	r3, #0
 660:	e5931000 	ldr	r1, [r3]
 664:	e3003000 	movw	r3, #0
 668:	e3403000 	movt	r3, #0
 66c:	e5933000 	ldr	r3, [r3]
 670:	e1a02003 	mov	r2, r3
 674:	e3000000 	movw	r0, #0
 678:	e3400000 	movt	r0, #0
 67c:	ebfffffe 	bl	0 <printk>
 680:	e3a03000 	mov	r3, #0
 684:	e50b3018 	str	r3, [fp, #-24]
 688:	ea000009 	b	6b4 <dmatest_init+0x43c>
 68c:	e3003000 	movw	r3, #0
 690:	e3403000 	movt	r3, #0
 694:	e5932000 	ldr	r2, [r3]
 698:	e51b3018 	ldr	r3, [fp, #-24]
 69c:	e0823003 	add	r3, r2, r3
 6a0:	e3a02061 	mov	r2, #97	; 0x61
 6a4:	e5c32000 	strb	r2, [r3]
 6a8:	e51b3018 	ldr	r3, [fp, #-24]
 6ac:	e2833001 	add	r3, r3, #1
 6b0:	e50b3018 	str	r3, [fp, #-24]
 6b4:	e51b3018 	ldr	r3, [fp, #-24]
 6b8:	e3530c02 	cmp	r3, #512	; 0x200
 6bc:	bafffff2 	blt	68c <dmatest_init+0x414>
 6c0:	e24b30cc 	sub	r3, fp, #204	; 0xcc
 6c4:	e50b30ac 	str	r3, [fp, #-172]	; 0xac
 6c8:	e51b30ac 	ldr	r3, [fp, #-172]	; 0xac
 6cc:	e50b30b0 	str	r3, [fp, #-176]	; 0xb0
 6d0:	e3a0300e 	mov	r3, #14
 6d4:	e50b30b4 	str	r3, [fp, #-180]	; 0xb4
 6d8:	e51b30b4 	ldr	r3, [fp, #-180]	; 0xb4
 6dc:	e283301f 	add	r3, r3, #31
 6e0:	e1a032a3 	lsr	r3, r3, #5
 6e4:	e1a03103 	lsl	r3, r3, #2
 6e8:	e50b30b8 	str	r3, [fp, #-184]	; 0xb8
 6ec:	e51b30b0 	ldr	r3, [fp, #-176]	; 0xb0
 6f0:	e50b30bc 	str	r3, [fp, #-188]	; 0xbc
 6f4:	e51b30b8 	ldr	r3, [fp, #-184]	; 0xb8
 6f8:	e50b30c0 	str	r3, [fp, #-192]	; 0xc0
 6fc:	e51b30c0 	ldr	r3, [fp, #-192]	; 0xc0
 700:	e3530000 	cmp	r3, #0
 704:	0a000002 	beq	714 <dmatest_init+0x49c>
 708:	e51b10c0 	ldr	r1, [fp, #-192]	; 0xc0
 70c:	e51b00bc 	ldr	r0, [fp, #-188]	; 0xbc
 710:	ebfffffe 	bl	0 <__memzero>
 714:	e3a03000 	mov	r3, #0
 718:	e50b30c4 	str	r3, [fp, #-196]	; 0xc4
 71c:	e24b30cc 	sub	r3, fp, #204	; 0xcc
 720:	e50b30c8 	str	r3, [fp, #-200]	; 0xc8
 724:	e51b30c4 	ldr	r3, [fp, #-196]	; 0xc4
 728:	e51b20c8 	ldr	r2, [fp, #-200]	; 0xc8
 72c:	e1a01002 	mov	r1, r2
 730:	e1a00003 	mov	r0, r3
 734:	ebfffffe 	bl	0 <_set_bit>
 738:	e24b30cc 	sub	r3, fp, #204	; 0xcc
 73c:	e3a02000 	mov	r2, #0
 740:	e3a01000 	mov	r1, #0
 744:	e1a00003 	mov	r0, r3
 748:	ebfffffe 	bl	0 <__dma_request_channel>
 74c:	e1a02000 	mov	r2, r0
 750:	e3003000 	movw	r3, #0
 754:	e3403000 	movt	r3, #0
 758:	e5832000 	str	r2, [r3]
 75c:	e3003000 	movw	r3, #0
 760:	e3403000 	movt	r3, #0
 764:	e5933000 	ldr	r3, [r3]
 768:	e593300c 	ldr	r3, [r3, #12]
 76c:	e1a01003 	mov	r1, r3
 770:	e3000000 	movw	r0, #0
 774:	e3400000 	movt	r0, #0
 778:	ebfffffe 	bl	0 <printk>
 77c:	e3003000 	movw	r3, #0
 780:	e3403000 	movt	r3, #0
 784:	e3a02003 	mov	r2, #3
 788:	e5832000 	str	r2, [r3]
 78c:	e3003000 	movw	r3, #0
 790:	e3403000 	movt	r3, #0
 794:	e5933000 	ldr	r3, [r3]
 798:	e5932000 	ldr	r2, [r3]
 79c:	e3003000 	movw	r3, #0
 7a0:	e3403000 	movt	r3, #0
 7a4:	e5832000 	str	r2, [r3]
 7a8:	e3a03000 	mov	r3, #0
 7ac:	e1a00003 	mov	r0, r3
 7b0:	e24bd010 	sub	sp, fp, #16
 7b4:	e89da810 	ldm	sp, {r4, fp, sp, pc}

000007b8 <cleanup_module>:
 7b8:	e1a0c00d 	mov	ip, sp
 7bc:	e92dd810 	push	{r4, fp, ip, lr, pc}
 7c0:	e24cb004 	sub	fp, ip, #4
 7c4:	e24dd0fc 	sub	sp, sp, #252	; 0xfc
 7c8:	e52de004 	push	{lr}		; (str lr, [sp, #-4]!)
 7cc:	ebfffffe 	bl	0 <__gnu_mcount_nc>
 7d0:	e3003000 	movw	r3, #0
 7d4:	e3403000 	movt	r3, #0
 7d8:	e5d33000 	ldrb	r3, [r3]
 7dc:	e50b3018 	str	r3, [fp, #-24]
 7e0:	e3003000 	movw	r3, #0
 7e4:	e3403000 	movt	r3, #0
 7e8:	e50b301c 	str	r3, [fp, #-28]
 7ec:	e51b301c 	ldr	r3, [fp, #-28]
 7f0:	e3a02c01 	mov	r2, #256	; 0x100
 7f4:	e3a01000 	mov	r1, #0
 7f8:	e51b0018 	ldr	r0, [fp, #-24]
 7fc:	ebfffffe 	bl	0 <__unregister_chrdev>
 800:	e3003000 	movw	r3, #0
 804:	e3403000 	movt	r3, #0
 808:	e5932000 	ldr	r2, [r3]
 80c:	e3003000 	movw	r3, #0
 810:	e3403000 	movt	r3, #0
 814:	e5d33000 	ldrb	r3, [r3]
 818:	e1a03a03 	lsl	r3, r3, #20
 81c:	e1a01003 	mov	r1, r3
 820:	e1a00002 	mov	r0, r2
 824:	ebfffffe 	bl	0 <device_destroy>
 828:	e3003000 	movw	r3, #0
 82c:	e3403000 	movt	r3, #0
 830:	e5933000 	ldr	r3, [r3]
 834:	e1a00003 	mov	r0, r3
 838:	ebfffffe 	bl	0 <class_destroy>
 83c:	e3003000 	movw	r3, #0
 840:	e3403000 	movt	r3, #0
 844:	e5932000 	ldr	r2, [r3]
 848:	e3003000 	movw	r3, #0
 84c:	e3403000 	movt	r3, #0
 850:	e5933000 	ldr	r3, [r3]
 854:	e3a01000 	mov	r1, #0
 858:	e50b1020 	str	r1, [fp, #-32]
 85c:	e3a01c02 	mov	r1, #512	; 0x200
 860:	e50b1024 	str	r1, [fp, #-36]	; 0x24
 864:	e50b2028 	str	r2, [fp, #-40]	; 0x28
 868:	e50b302c 	str	r3, [fp, #-44]	; 0x2c
 86c:	e51b3020 	ldr	r3, [fp, #-32]
 870:	e50b3030 	str	r3, [fp, #-48]	; 0x30
 874:	e51b3024 	ldr	r3, [fp, #-36]	; 0x24
 878:	e50b3034 	str	r3, [fp, #-52]	; 0x34
 87c:	e51b3028 	ldr	r3, [fp, #-40]	; 0x28
 880:	e50b3038 	str	r3, [fp, #-56]	; 0x38
 884:	e51b302c 	ldr	r3, [fp, #-44]	; 0x2c
 888:	e50b303c 	str	r3, [fp, #-60]	; 0x3c
 88c:	e3a03000 	mov	r3, #0
 890:	e50b3040 	str	r3, [fp, #-64]	; 0x40
 894:	e51b3030 	ldr	r3, [fp, #-48]	; 0x30
 898:	e50b3044 	str	r3, [fp, #-68]	; 0x44
 89c:	e51b3044 	ldr	r3, [fp, #-68]	; 0x44
 8a0:	e50b3048 	str	r3, [fp, #-72]	; 0x48
 8a4:	e51b3048 	ldr	r3, [fp, #-72]	; 0x48
 8a8:	e3530000 	cmp	r3, #0
 8ac:	0a000006 	beq	8cc <cleanup_module+0x114>
 8b0:	e51b3048 	ldr	r3, [fp, #-72]	; 0x48
 8b4:	e5933134 	ldr	r3, [r3, #308]	; 0x134
 8b8:	e3530000 	cmp	r3, #0
 8bc:	0a000002 	beq	8cc <cleanup_module+0x114>
 8c0:	e51b3048 	ldr	r3, [fp, #-72]	; 0x48
 8c4:	e5933134 	ldr	r3, [r3, #308]	; 0x134
 8c8:	ea000001 	b	8d4 <cleanup_module+0x11c>
 8cc:	e3003000 	movw	r3, #0
 8d0:	e3403000 	movt	r3, #0
 8d4:	e50b304c 	str	r3, [fp, #-76]	; 0x4c
 8d8:	e51b304c 	ldr	r3, [fp, #-76]	; 0x4c
 8dc:	e3530000 	cmp	r3, #0
 8e0:	03a03001 	moveq	r3, #1
 8e4:	13a03000 	movne	r3, #0
 8e8:	e6ef3073 	uxtb	r3, r3
 8ec:	e3530000 	cmp	r3, #0
 8f0:	0a000000 	beq	8f8 <cleanup_module+0x140>
 8f4:	e7f001f2 	undefined instruction 0xe7f001f2
 8f8:	e10f3000 	mrs	r3, CPSR
 8fc:	e50b3050 	str	r3, [fp, #-80]	; 0x50
 900:	e51b3050 	ldr	r3, [fp, #-80]	; 0x50
 904:	e50b3054 	str	r3, [fp, #-84]	; 0x54
 908:	e51b3054 	ldr	r3, [fp, #-84]	; 0x54
 90c:	e50b3058 	str	r3, [fp, #-88]	; 0x58
 910:	e51b3058 	ldr	r3, [fp, #-88]	; 0x58
 914:	e2033080 	and	r3, r3, #128	; 0x80
 918:	e3530000 	cmp	r3, #0
 91c:	13a03001 	movne	r3, #1
 920:	03a03000 	moveq	r3, #0
 924:	e6ef3073 	uxtb	r3, r3
 928:	e50b305c 	str	r3, [fp, #-92]	; 0x5c
 92c:	e51b305c 	ldr	r3, [fp, #-92]	; 0x5c
 930:	e3530000 	cmp	r3, #0
 934:	13a03001 	movne	r3, #1
 938:	03a03000 	moveq	r3, #0
 93c:	e6ef3073 	uxtb	r3, r3
 940:	e3530000 	cmp	r3, #0
 944:	0a000003 	beq	958 <cleanup_module+0x1a0>
 948:	e3a01f7b 	mov	r1, #492	; 0x1ec
 94c:	e3000000 	movw	r0, #0
 950:	e3400000 	movt	r0, #0
 954:	ebfffffe 	bl	0 <warn_slowpath_null>
 958:	e51b305c 	ldr	r3, [fp, #-92]	; 0x5c
 95c:	e3530000 	cmp	r3, #0
 960:	e51b3034 	ldr	r3, [fp, #-52]	; 0x34
 964:	e50b3060 	str	r3, [fp, #-96]	; 0x60
 968:	e51b3060 	ldr	r3, [fp, #-96]	; 0x60
 96c:	e2433001 	sub	r3, r3, #1
 970:	e50b3060 	str	r3, [fp, #-96]	; 0x60
 974:	e51b3060 	ldr	r3, [fp, #-96]	; 0x60
 978:	e1a03623 	lsr	r3, r3, #12
 97c:	e50b3060 	str	r3, [fp, #-96]	; 0x60
 980:	e51b3060 	ldr	r3, [fp, #-96]	; 0x60
 984:	e50b3064 	str	r3, [fp, #-100]	; 0x64
 988:	e51b3064 	ldr	r3, [fp, #-100]	; 0x64
 98c:	e50b3068 	str	r3, [fp, #-104]	; 0x68
 990:	e51b3068 	ldr	r3, [fp, #-104]	; 0x68
 994:	e16f3f13 	clz	r3, r3
 998:	e50b306c 	str	r3, [fp, #-108]	; 0x6c
 99c:	e51b306c 	ldr	r3, [fp, #-108]	; 0x6c
 9a0:	e2633020 	rsb	r3, r3, #32
 9a4:	e50b3070 	str	r3, [fp, #-112]	; 0x70
 9a8:	e51b3070 	ldr	r3, [fp, #-112]	; 0x70
 9ac:	e51b2038 	ldr	r2, [fp, #-56]	; 0x38
 9b0:	e1a01003 	mov	r1, r3
 9b4:	e51b0030 	ldr	r0, [fp, #-48]	; 0x30
 9b8:	ebfffffe 	bl	0 <dma_release_from_coherent>
 9bc:	e1a03000 	mov	r3, r0
 9c0:	e3530000 	cmp	r3, #0
 9c4:	1a000017 	bne	a28 <cleanup_module+0x270>
 9c8:	e51b304c 	ldr	r3, [fp, #-76]	; 0x4c
 9cc:	e5933004 	ldr	r3, [r3, #4]
 9d0:	e3530000 	cmp	r3, #0
 9d4:	0a000013 	beq	a28 <cleanup_module+0x270>
 9d8:	e51b3038 	ldr	r3, [fp, #-56]	; 0x38
 9dc:	e3530000 	cmp	r3, #0
 9e0:	0a000010 	beq	a28 <cleanup_module+0x270>
 9e4:	e51b3030 	ldr	r3, [fp, #-48]	; 0x30
 9e8:	e50b3074 	str	r3, [fp, #-116]	; 0x74
 9ec:	e51b3034 	ldr	r3, [fp, #-52]	; 0x34
 9f0:	e50b3078 	str	r3, [fp, #-120]	; 0x78
 9f4:	e51b3038 	ldr	r3, [fp, #-56]	; 0x38
 9f8:	e50b307c 	str	r3, [fp, #-124]	; 0x7c
 9fc:	e51b303c 	ldr	r3, [fp, #-60]	; 0x3c
 a00:	e50b3080 	str	r3, [fp, #-128]	; 0x80
 a04:	e51b304c 	ldr	r3, [fp, #-76]	; 0x4c
 a08:	e5934004 	ldr	r4, [r3, #4]
 a0c:	e51b3040 	ldr	r3, [fp, #-64]	; 0x40
 a10:	e58d3000 	str	r3, [sp]
 a14:	e51b303c 	ldr	r3, [fp, #-60]	; 0x3c
 a18:	e51b2038 	ldr	r2, [fp, #-56]	; 0x38
 a1c:	e51b1034 	ldr	r1, [fp, #-52]	; 0x34
 a20:	e51b0030 	ldr	r0, [fp, #-48]	; 0x30
 a24:	e12fff34 	blx	r4
 a28:	e3003000 	movw	r3, #0
 a2c:	e3403000 	movt	r3, #0
 a30:	e5932000 	ldr	r2, [r3]
 a34:	e3003000 	movw	r3, #0
 a38:	e3403000 	movt	r3, #0
 a3c:	e5933000 	ldr	r3, [r3]
 a40:	e3a01000 	mov	r1, #0
 a44:	e50b1084 	str	r1, [fp, #-132]	; 0x84
 a48:	e3a01c02 	mov	r1, #512	; 0x200
 a4c:	e50b1088 	str	r1, [fp, #-136]	; 0x88
 a50:	e50b208c 	str	r2, [fp, #-140]	; 0x8c
 a54:	e50b3090 	str	r3, [fp, #-144]	; 0x90
 a58:	e51b3084 	ldr	r3, [fp, #-132]	; 0x84
 a5c:	e50b3094 	str	r3, [fp, #-148]	; 0x94
 a60:	e51b3088 	ldr	r3, [fp, #-136]	; 0x88
 a64:	e50b3098 	str	r3, [fp, #-152]	; 0x98
 a68:	e51b308c 	ldr	r3, [fp, #-140]	; 0x8c
 a6c:	e50b309c 	str	r3, [fp, #-156]	; 0x9c
 a70:	e51b3090 	ldr	r3, [fp, #-144]	; 0x90
 a74:	e50b30a0 	str	r3, [fp, #-160]	; 0xa0
 a78:	e3a03000 	mov	r3, #0
 a7c:	e50b30a4 	str	r3, [fp, #-164]	; 0xa4
 a80:	e51b3094 	ldr	r3, [fp, #-148]	; 0x94
 a84:	e50b30a8 	str	r3, [fp, #-168]	; 0xa8
 a88:	e51b30a8 	ldr	r3, [fp, #-168]	; 0xa8
 a8c:	e50b30ac 	str	r3, [fp, #-172]	; 0xac
 a90:	e51b30ac 	ldr	r3, [fp, #-172]	; 0xac
 a94:	e3530000 	cmp	r3, #0
 a98:	0a000006 	beq	ab8 <cleanup_module+0x300>
 a9c:	e51b30ac 	ldr	r3, [fp, #-172]	; 0xac
 aa0:	e5933134 	ldr	r3, [r3, #308]	; 0x134
 aa4:	e3530000 	cmp	r3, #0
 aa8:	0a000002 	beq	ab8 <cleanup_module+0x300>
 aac:	e51b30ac 	ldr	r3, [fp, #-172]	; 0xac
 ab0:	e5933134 	ldr	r3, [r3, #308]	; 0x134
 ab4:	ea000001 	b	ac0 <cleanup_module+0x308>
 ab8:	e3003000 	movw	r3, #0
 abc:	e3403000 	movt	r3, #0
 ac0:	e50b30b0 	str	r3, [fp, #-176]	; 0xb0
 ac4:	e51b30b0 	ldr	r3, [fp, #-176]	; 0xb0
 ac8:	e3530000 	cmp	r3, #0
 acc:	03a03001 	moveq	r3, #1
 ad0:	13a03000 	movne	r3, #0
 ad4:	e6ef3073 	uxtb	r3, r3
 ad8:	e3530000 	cmp	r3, #0
 adc:	0a000000 	beq	ae4 <cleanup_module+0x32c>
 ae0:	e7f001f2 	undefined instruction 0xe7f001f2
 ae4:	e10f3000 	mrs	r3, CPSR
 ae8:	e50b30b4 	str	r3, [fp, #-180]	; 0xb4
 aec:	e51b30b4 	ldr	r3, [fp, #-180]	; 0xb4
 af0:	e50b30b8 	str	r3, [fp, #-184]	; 0xb8
 af4:	e51b30b8 	ldr	r3, [fp, #-184]	; 0xb8
 af8:	e50b30bc 	str	r3, [fp, #-188]	; 0xbc
 afc:	e51b30bc 	ldr	r3, [fp, #-188]	; 0xbc
 b00:	e2033080 	and	r3, r3, #128	; 0x80
 b04:	e3530000 	cmp	r3, #0
 b08:	13a03001 	movne	r3, #1
 b0c:	03a03000 	moveq	r3, #0
 b10:	e6ef3073 	uxtb	r3, r3
 b14:	e50b30c0 	str	r3, [fp, #-192]	; 0xc0
 b18:	e51b30c0 	ldr	r3, [fp, #-192]	; 0xc0
 b1c:	e3530000 	cmp	r3, #0
 b20:	13a03001 	movne	r3, #1
 b24:	03a03000 	moveq	r3, #0
 b28:	e6ef3073 	uxtb	r3, r3
 b2c:	e3530000 	cmp	r3, #0
 b30:	0a000003 	beq	b44 <cleanup_module+0x38c>
 b34:	e3a01f7b 	mov	r1, #492	; 0x1ec
 b38:	e3000000 	movw	r0, #0
 b3c:	e3400000 	movt	r0, #0
 b40:	ebfffffe 	bl	0 <warn_slowpath_null>
 b44:	e51b30c0 	ldr	r3, [fp, #-192]	; 0xc0
 b48:	e3530000 	cmp	r3, #0
 b4c:	e51b3098 	ldr	r3, [fp, #-152]	; 0x98
 b50:	e50b30c4 	str	r3, [fp, #-196]	; 0xc4
 b54:	e51b30c4 	ldr	r3, [fp, #-196]	; 0xc4
 b58:	e2433001 	sub	r3, r3, #1
 b5c:	e50b30c4 	str	r3, [fp, #-196]	; 0xc4
 b60:	e51b30c4 	ldr	r3, [fp, #-196]	; 0xc4
 b64:	e1a03623 	lsr	r3, r3, #12
 b68:	e50b30c4 	str	r3, [fp, #-196]	; 0xc4
 b6c:	e51b30c4 	ldr	r3, [fp, #-196]	; 0xc4
 b70:	e50b30c8 	str	r3, [fp, #-200]	; 0xc8
 b74:	e51b30c8 	ldr	r3, [fp, #-200]	; 0xc8
 b78:	e50b30cc 	str	r3, [fp, #-204]	; 0xcc
 b7c:	e51b30cc 	ldr	r3, [fp, #-204]	; 0xcc
 b80:	e16f3f13 	clz	r3, r3
 b84:	e50b30d0 	str	r3, [fp, #-208]	; 0xd0
 b88:	e51b30d0 	ldr	r3, [fp, #-208]	; 0xd0
 b8c:	e2633020 	rsb	r3, r3, #32
 b90:	e50b30d4 	str	r3, [fp, #-212]	; 0xd4
 b94:	e51b30d4 	ldr	r3, [fp, #-212]	; 0xd4
 b98:	e51b209c 	ldr	r2, [fp, #-156]	; 0x9c
 b9c:	e1a01003 	mov	r1, r3
 ba0:	e51b0094 	ldr	r0, [fp, #-148]	; 0x94
 ba4:	ebfffffe 	bl	0 <dma_release_from_coherent>
 ba8:	e1a03000 	mov	r3, r0
 bac:	e3530000 	cmp	r3, #0
 bb0:	1a000017 	bne	c14 <cleanup_module+0x45c>
 bb4:	e51b30b0 	ldr	r3, [fp, #-176]	; 0xb0
 bb8:	e5933004 	ldr	r3, [r3, #4]
 bbc:	e3530000 	cmp	r3, #0
 bc0:	0a000013 	beq	c14 <cleanup_module+0x45c>
 bc4:	e51b309c 	ldr	r3, [fp, #-156]	; 0x9c
 bc8:	e3530000 	cmp	r3, #0
 bcc:	0a000010 	beq	c14 <cleanup_module+0x45c>
 bd0:	e51b3094 	ldr	r3, [fp, #-148]	; 0x94
 bd4:	e50b30d8 	str	r3, [fp, #-216]	; 0xd8
 bd8:	e51b3098 	ldr	r3, [fp, #-152]	; 0x98
 bdc:	e50b30dc 	str	r3, [fp, #-220]	; 0xdc
 be0:	e51b309c 	ldr	r3, [fp, #-156]	; 0x9c
 be4:	e50b30e0 	str	r3, [fp, #-224]	; 0xe0
 be8:	e51b30a0 	ldr	r3, [fp, #-160]	; 0xa0
 bec:	e50b30e4 	str	r3, [fp, #-228]	; 0xe4
 bf0:	e51b30b0 	ldr	r3, [fp, #-176]	; 0xb0
 bf4:	e5934004 	ldr	r4, [r3, #4]
 bf8:	e51b30a4 	ldr	r3, [fp, #-164]	; 0xa4
 bfc:	e58d3000 	str	r3, [sp]
 c00:	e51b30a0 	ldr	r3, [fp, #-160]	; 0xa0
 c04:	e51b209c 	ldr	r2, [fp, #-156]	; 0x9c
 c08:	e51b1098 	ldr	r1, [fp, #-152]	; 0x98
 c0c:	e51b0094 	ldr	r0, [fp, #-148]	; 0x94
 c10:	e12fff34 	blx	r4
 c14:	e3003000 	movw	r3, #0
 c18:	e3403000 	movt	r3, #0
 c1c:	e5933000 	ldr	r3, [r3]
 c20:	e1a00003 	mov	r0, r3
 c24:	ebfffffe 	bl	0 <dma_release_channel>
 c28:	e24bd010 	sub	sp, fp, #16
 c2c:	e89da810 	ldm	sp, {r4, fp, sp, pc}

Disassembly of section __bug_table:

00000000 <__bug_table>:
   0:	00000438 	andeq	r0, r0, r8, lsr r4
   4:	00000000 	andeq	r0, r0, r0
   8:	000001d6 	ldrdeq	r0, [r0], -r6
   c:	000005b4 	undefined instruction 0x000005b4
  10:	0000001e 	andeq	r0, r0, lr, lsl r0
  14:	000001d6 	ldrdeq	r0, [r0], -r6
  18:	000008f4 	strdeq	r0, [r0], -r4
  1c:	0000003c 	andeq	r0, r0, ip, lsr r0
  20:	000001eb 	andeq	r0, r0, fp, ror #3
  24:	00000ae0 	andeq	r0, r0, r0, ror #21
  28:	0000005a 	andeq	r0, r0, sl, asr r0
  2c:	000001eb 	andeq	r0, r0, fp, ror #3

Disassembly of section .modinfo:

00000000 <__UNIQUE_ID_license14>:
   0:	6563696c 	strbvs	r6, [r3, #-2412]!	; 0x96c
   4:	3d65736e 	stclcc	3, cr7, [r5, #-440]!	; 0xfffffe48
   8:	004c5047 	subeq	r5, ip, r7, asr #32

0000000c <__UNIQUE_ID_vermagic8>:
   c:	6d726576 	cfldr64vs	mvdx6, [r2, #-472]!	; 0xfffffe28
  10:	63696761 	cmnvs	r9, #25427968	; 0x1840000
  14:	312e343d 	teqcc	lr, sp, lsr r4
  18:	2b302e30 	blcs	c0b8e0 <cleanup_module+0xc0b128>
  1c:	504d5320 	subpl	r5, sp, r0, lsr #6
  20:	646f6d20 	strbtvs	r6, [pc], #3360	; 28 <__UNIQUE_ID_vermagic8+0x1c>
  24:	6c6e755f 	cfstr64vs	mvdx7, [lr], #-380	; 0xfffffe84
  28:	2064616f 	rsbcs	r6, r4, pc, ror #2
  2c:	764d5241 	strbvc	r5, [sp], -r1, asr #4
  30:	32702037 	rsbscc	r2, r0, #55	; 0x37
  34:	00203876 	eoreq	r3, r0, r6, ror r8

00000038 <__module_depends>:
  38:	65706564 	ldrbvs	r6, [r0, #-1380]!	; 0x564
  3c:	3d73646e 	cfldrdcc	mvd6, [r3, #-440]!	; 0xfffffe48
  40:	00000000 	andeq	r0, r0, r0

Disassembly of section __mcount_loc:

00000000 <__mcount_loc>:
   0:	00000014 	andeq	r0, r0, r4, lsl r0
   4:	00000080 	andeq	r0, r0, r0, lsl #1
   8:	000000b0 	strheq	r0, [r0], -r0
   c:	000000e0 	andeq	r0, r0, r0, ror #1
  10:	0000024c 	andeq	r0, r0, ip, asr #4
  14:	0000028c 	andeq	r0, r0, ip, lsl #5
  18:	000007cc 	andeq	r0, r0, ip, asr #15
